Certificate:
    Data:
        Version: 3 (0x2)
        Serial Number:
            db:d4:bf:ed:bd:0f:71:bb:84:88:c5:e7:c4:01:67:cb
    Signature Algorithm: sha256WithRSAEncryption
        Issuer: C=CH, O=Liip SA, CN=homebytwo.lo CA
        Validity
            Not Before: Nov 28 18:40:31 2016 GMT
            Not After : Nov 26 18:40:31 2026 GMT
        Subject: C=CH, O=Liip SA, CN=homebytwo.lo CA
        Subject Public Key Info:
            Public Key Algorithm: rsaEncryption
                Public-Key: (2048 bit)
                Modulus:
                    00:d8:b3:cd:30:38:92:84:08:37:1e:32:33:08:99:
                    eb:e7:bc:27:0e:65:42:dc:d5:36:fa:a8:8f:d6:0e:
                    6f:26:11:1b:0e:12:55:71:0b:08:90:04:6c:70:13:
                    a4:58:ae:5c:b0:7c:fc:a6:6b:b5:ac:92:f9:29:b9:
                    ac:2d:8f:7e:1d:ea:0b:60:09:89:d4:3c:82:d2:8a:
                    ff:ba:6a:d6:87:4c:30:00:21:dd:f8:17:51:59:35:
                    4b:16:65:a2:42:72:b9:7d:78:32:a4:42:ae:37:58:
                    38:a9:e9:05:6f:3e:e9:c1:1a:f1:96:13:96:aa:e3:
                    dc:58:eb:e5:03:22:18:f0:65:0a:8e:4b:a1:17:bf:
                    74:53:b5:0a:5e:01:b9:7e:5f:47:d9:27:3d:b3:d9:
                    fd:95:c3:05:bc:04:ff:5e:95:a3:8e:9d:d4:95:d6:
                    1f:f9:f1:5d:ec:9e:d0:2c:89:b5:d1:9f:40:07:ee:
                    24:5b:5b:0c:3c:c7:60:47:6e:32:7a:b2:5b:84:04:
                    60:b7:b0:d4:26:e4:da:28:df:07:28:4a:46:66:7c:
                    1a:8f:ee:e2:4f:51:26:dd:15:d1:eb:c3:3c:3a:7d:
                    9e:4f:03:e9:be:97:2a:91:2a:80:e2:35:82:80:71:
                    10:04:e3:42:d5:51:cf:b4:41:db:7c:0c:a4:28:10:
                    6b:4d
                Exponent: 65537 (0x10001)
        X509v3 extensions:
            X509v3 Basic Constraints: critical
                CA:TRUE, pathlen:0
            X509v3 Key Usage: critical
                Certificate Sign, CRL Sign
            X509v3 Subject Key Identifier: 
                A2:9B:DF:06:3A:E7:52:28:44:8F:55:ED:C3:63:08:50:BD:9F:3C:6B
            X509v3 Name Constraints: critical
                Permitted:
                  DNS:homebytwo.lo
                  DNS:hb2.lo
                  IP:10.0.0.0/255.0.0.0
                  IP:172.16.0.0/255.128.0.0
                  IP:192.168.0.0/255.255.0.0

            X509v3 Extended Key Usage: 
                TLS Web Server Authentication
    Signature Algorithm: sha256WithRSAEncryption
         36:84:8d:af:2d:a0:f8:f5:e5:ee:16:52:f3:28:0b:2a:7b:99:
         ce:9c:6f:95:6c:3b:7b:b5:0b:83:33:33:b6:3d:31:5b:e6:fb:
         3c:56:6a:59:e1:c9:72:80:f9:56:6c:1d:bf:fc:15:46:8d:33:
         67:0d:cb:d4:8c:82:2e:59:ab:6d:f3:86:bf:b0:02:ae:23:d6:
         ea:c6:6c:2a:12:d4:5f:d3:a8:a7:fc:04:e3:54:ed:c2:43:53:
         de:0c:f0:b4:e4:60:92:e1:f8:ef:1c:03:0c:b2:c8:63:cc:67:
         54:b7:97:6d:bd:05:78:2c:64:02:98:f0:dc:3e:a6:52:85:59:
         80:96:89:be:2c:72:25:3c:52:ca:70:81:21:28:85:59:16:c8:
         56:f3:d8:d0:74:ab:81:6b:17:07:ca:89:2d:0b:39:5f:35:d2:
         a6:db:52:88:53:ad:bc:f1:14:c0:b5:4f:49:ed:16:17:68:18:
         e6:5a:4d:b5:ed:10:a4:45:04:e6:33:a7:d1:d0:ce:e3:70:a5:
         e8:7c:31:0a:c3:ee:20:ff:df:1d:d6:80:29:4b:45:ac:11:e6:
         bc:7a:3b:7b:28:d4:2f:0e:16:28:6f:d7:a3:67:5e:7f:b7:24:
         fd:93:a1:0f:a5:da:61:0d:9f:15:c3:98:2d:b5:1b:fb:5c:4a:
         95:c1:87:16
-----BEGIN CERTIFICATE-----
MIIDpzCCAo+gAwIBAgIRANvUv+29D3G7hIjF58QBZ8swDQYJKoZIhvcNAQELBQAw
OTELMAkGA1UEBhMCQ0gxEDAOBgNVBAoMB0xpaXAgU0ExGDAWBgNVBAMMD2hvbWVi
eXR3by5sbyBDQTAeFw0xNjExMjgxODQwMzFaFw0yNjExMjYxODQwMzFaMDkxCzAJ
BgNVBAYTAkNIMRAwDgYDVQQKDAdMaWlwIFNBMRgwFgYDVQQDDA9ob21lYnl0d28u
bG8gQ0EwggEiMA0GCSqGSIb3DQEBAQUAA4IBDwAwggEKAoIBAQDYs80wOJKECDce
MjMImevnvCcOZULc1Tb6qI/WDm8mERsOElVxCwiQBGxwE6RYrlywfPyma7Wskvkp
uawtj34d6gtgCYnUPILSiv+6ataHTDAAId34F1FZNUsWZaJCcrl9eDKkQq43WDip
6QVvPunBGvGWE5aq49xY6+UDIhjwZQqOS6EXv3RTtQpeAbl+X0fZJz2z2f2VwwW8
BP9elaOOndSV1h/58V3sntAsibXRn0AH7iRbWww8x2BHbjJ6sluEBGC3sNQm5Noo
3wcoSkZmfBqP7uJPUSbdFdHrwzw6fZ5PA+m+lyqRKoDiNYKAcRAE40LVUc+0Qdt8
DKQoEGtNAgMBAAGjgakwgaYwEgYDVR0TAQH/BAgwBgEB/wIBADAOBgNVHQ8BAf8E
BAMCAQYwHQYDVR0OBBYEFKKb3wY651IoRI9V7cNjCFC9nzxrMEwGA1UdHgEB/wRC
MECgPjAOggxob21lYnl0d28ubG8wCIIGaGIyLmxvMAqHCAoAAAD/AAAAMAqHCKwQ
AAD/gAAAMAqHCMCoAAD//wAAMBMGA1UdJQQMMAoGCCsGAQUFBwMBMA0GCSqGSIb3
DQEBCwUAA4IBAQA2hI2vLaD49eXuFlLzKAsqe5nOnG+VbDt7tQuDMzO2PTFb5vs8
VmpZ4clygPlWbB2//BVGjTNnDcvUjIIuWatt84a/sAKuI9bqxmwqEtRf06in/ATj
VO3CQ1PeDPC05GCS4fjvHAMMsshjzGdUt5dtvQV4LGQCmPDcPqZShVmAlom+LHIl
PFLKcIEhKIVZFshW89jQdKuBaxcHyoktCzlfNdKm21KIU6288RTAtU9J7RYXaBjm
Wk217RCkRQTmM6fR0M7jcKXofDEKw+4g/98d1oApS0WsEea8ejt7KNQvDhYob9ej
Z15/tyT9k6EPpdphDZ8Vw5gttRv7XEqVwYcW
-----END CERTIFICATE-----
